; Function Attrs: mustprogress uwtable
define void @_ZN7ImGuiIO17AddInputCharacterEj(ptr noundef nonnull readonly align 8 captures(none) dereferenceable(3016) %0, i32 noundef %1) local_unnamed_addr #0 align 2 {
  %3 = alloca %struct.ImGuiInputEvent, align 4
  %4 = getelementptr inbounds nuw i8, ptr %0, i64 216
  %5 = load ptr, ptr %4, align 8, !tbaa !95
  %6 = icmp eq i32 %1, 0
  br i1 %6, label %20, label %7

7:                                                ; preds = %2
  %8 = getelementptr inbounds nuw i8, ptr %0, i64 2973
  %9 = load i8, ptr %8, align 1, !tbaa !90, !range !96, !noundef !97
  %10 = trunc nuw i8 %9 to i1
  br i1 %10, label %11, label %20

11:                                               ; preds = %7
  call void @llvm.lifetime.start.p0(i64 28, ptr nonnull %3) #44
  %12 = getelementptr inbounds nuw i8, ptr %3, i64 16
  call void @llvm.memset.p0.i64(ptr noundef nonnull align 4 dereferenceable(12) %12, i8 0, i64 12, i1 false)
  store i32 5, ptr %3, align 4, !tbaa !98
  %13 = getelementptr inbounds nuw i8, ptr %3, i64 4
  store i32 2, ptr %13, align 4, !tbaa !102
  %14 = getelementptr inbounds nuw i8, ptr %5, i64 4916
  %15 = load i32, ptr %14, align 4, !tbaa !103
  %16 = add i32 %15, 1
  store i32 %16, ptr %14, align 4, !tbaa !103
  %17 = getelementptr inbounds nuw i8, ptr %3, i64 8
  store i32 %15, ptr %17, align 4, !tbaa !210
  %18 = getelementptr inbounds nuw i8, ptr %3, i64 12
  store i32 %1, ptr %18, align 4, !tbaa !211
  %19 = getelementptr inbounds nuw i8, ptr %5, i64 4880
  call void @_ZN8ImVectorI15ImGuiInputEventE9push_backERKS0_(ptr noundef nonnull align 8 dereferenceable(16) %19, ptr noundef nonnull align 4 dereferenceable(25) %3)
  call void @llvm.lifetime.end.p0(i64 28, ptr nonnull %3) #44
  br label %20

20:                                               ; preds = %2, %7, %11
  ret void
}